; Function Attrs: inlinehint mustprogress nounwind optsize uwtable
define internal noundef ptr @"_ZZN8nanobind6detail11func_createILb0ELb1EZL30nanobind_init_test_ndarray_extRNS_7module_EE4$_42iJETpTnmJEJNS_5scopeENS_4nameEEEEP7_objectOT1_PFT2_DpT3_ESt16integer_sequenceImJXspT4_EEEDpRKT5_ENUlPvPS8_PhNS_9rv_policyEPNS0_12cleanup_listEE_8__invokeESM_SN_SO_SP_SR_"(ptr readnone captures(none) %0, ptr readnone captures(none) %1, ptr readnone captures(none) %2, i32 %3, ptr readnone captures(none) %4) #8 align 2 personality ptr @__gxx_personality_v0 {
  %6 = load i32, ptr @destruct_count, align 4, !tbaa !105
  %7 = sext i32 %6 to i64
  %8 = invoke ptr @PyLong_FromLong(i64 noundef %7) #21
          to label %"_ZZN8nanobind6detail11func_createILb0ELb1EZL30nanobind_init_test_ndarray_extRNS_7module_EE4$_42iJETpTnmJEJNS_5scopeENS_4nameEEEEP7_objectOT1_PFT2_DpT3_ESt16integer_sequenceImJXspT4_EEEDpRKT5_ENKUlPvPS8_PhNS_9rv_policyEPNS0_12cleanup_listEE_clESM_SN_SO_SP_SR_.exit" unwind label %9

9:                                                ; preds = %5
  %10 = landingpad { ptr, i32 }
          catch ptr null
  %11 = extractvalue { ptr, i32 } %10, 0
  tail call void @__clang_call_terminate(ptr %11) #24
  unreachable

"_ZZN8nanobind6detail11func_createILb0ELb1EZL30nanobind_init_test_ndarray_extRNS_7module_EE4$_42iJETpTnmJEJNS_5scopeENS_4nameEEEEP7_objectOT1_PFT2_DpT3_ESt16integer_sequenceImJXspT4_EEEDpRKT5_ENKUlPvPS8_PhNS_9rv_policyEPNS0_12cleanup_listEE_clESM_SN_SO_SP_SR_.exit": ; preds = %5
  ret ptr %8
}